; Function Attrs: nounwind sspstrong uwtable
define internal range(i64 1, 0) i64 @ossl_cipher_block_size(i64 noundef %0) #0 {
  %2 = tail call ptr @rb_check_typeddata(i64 noundef %0, ptr noundef nonnull @ossl_cipher_type) #11
  %.not = icmp eq ptr %2, null
  br i1 %.not, label %3, label %5

3:                                                ; preds = %1
  %4 = load i64, ptr @rb_eRuntimeError, align 8, !tbaa !6
  tail call void (i64, ptr, ...) @ossl_raise(i64 noundef %4, ptr noundef nonnull @.str) #12
  unreachable

5:                                                ; preds = %1
  %6 = tail call i32 @EVP_CIPHER_CTX_get_block_size(ptr noundef nonnull %2) #11
  %7 = sext i32 %6 to i64
  %8 = shl nsw i64 %7, 1
  %9 = or disjoint i64 %8, 1
  ret i64 %9
}